Certificate:
    Data:
        Version: 3 (0x2)
        Serial Number: 1 (0x1)
        Signature Algorithm: sha256WithRSAEncryption
        Issuer: C=ES, ST=Barcelona, L=Barcelona, O=NSAA/emailAddress=admin@example.org, CN=Radius Server Certificate Authority
        Validity
            Not Before: May 18 16:14:01 2024 GMT
            Not After : Jul 17 16:14:01 2024 GMT
        Subject: C=ES, ST=Barcelona, O=NSAA, OU=NSAA, CN=jazmin
        Subject Public Key Info:
            Public Key Algorithm: rsaEncryption
                Public-Key: (2048 bit)
                Modulus:
                    00:a2:0e:5a:3a:cb:ab:ac:e6:32:e0:1a:e6:01:c3:
                    13:60:76:61:c6:f9:92:f9:7f:15:0f:cc:c9:04:d9:
                    2a:37:fe:c9:f5:07:30:ce:5a:6d:f3:b6:53:b2:d0:
                    42:19:3c:48:c4:63:1e:ae:79:e0:bb:59:b2:63:a3:
                    78:f0:b5:dd:95:04:7d:09:ea:3d:fc:4e:af:8b:dc:
                    a9:51:a4:18:16:70:46:e6:86:4a:c2:60:a8:6a:0f:
                    7e:51:8c:7f:e0:13:3a:f6:cb:06:c0:a3:83:43:1e:
                    b3:8f:ed:10:76:e9:a9:2c:25:a0:77:4a:84:c8:63:
                    25:c9:82:b3:16:34:40:35:bb:83:df:b7:92:44:01:
                    5a:00:d2:70:90:17:f7:f5:07:35:d6:73:a8:bc:68:
                    d5:24:01:ef:f0:1d:22:8c:c4:b9:b6:de:c1:3b:ec:
                    fc:26:f5:df:6d:69:e7:4e:0a:cc:4b:5d:73:b4:9e:
                    30:8a:e6:18:e2:40:d5:d1:4d:f1:ab:90:1c:51:d1:
                    63:c7:6f:6f:87:ab:89:34:7e:97:25:0e:63:18:06:
                    18:b1:9b:2e:ec:a4:33:f4:94:bc:0b:fb:cb:d4:f9:
                    ad:b2:15:6f:11:23:5a:f3:ee:f0:8f:fb:3f:e2:8e:
                    8a:0c:8a:a7:af:cd:73:36:fb:56:ec:ca:2a:eb:96:
                    1e:59
                Exponent: 65537 (0x10001)
        X509v3 extensions:
            X509v3 Extended Key Usage: 
                TLS Web Server Authentication
            X509v3 Subject Key Identifier: 
                6E:04:16:0C:FF:FB:6E:34:13:79:BA:DC:2E:A6:8C:44:46:90:AB:03
            X509v3 Authority Key Identifier: 
                2E:04:A4:5E:4F:07:A1:37:F9:AA:99:67:62:43:DD:12:09:5E:FD:B6
    Signature Algorithm: sha256WithRSAEncryption
    Signature Value:
        6c:7e:27:53:7e:cf:4f:37:20:6a:fa:0b:ad:84:7a:ab:fb:f1:
        f2:1e:bb:19:8b:c7:a0:61:09:fa:3f:ba:7d:e0:35:ae:72:ce:
        cf:ef:3e:ea:30:0d:04:57:f4:35:c6:d1:43:9d:6e:80:13:69:
        c0:ba:a0:d7:6b:11:43:20:6a:37:e5:9e:12:dd:2f:dd:0b:a7:
        16:a2:2a:28:a3:e9:66:f7:37:a9:cd:ec:9f:ca:0a:a2:78:e5:
        67:a4:7a:4b:2f:ac:f0:ce:eb:d4:66:12:38:b0:54:fc:4e:9d:
        36:a8:41:2b:2a:f0:f1:96:b8:95:74:3a:e3:c8:66:4b:31:95:
        d0:94:c1:d2:c6:4b:8b:f6:f5:0a:01:22:3e:e0:f3:ac:18:d5:
        09:cf:c0:ca:bc:e0:60:72:eb:4b:5d:d6:eb:a7:af:c9:bd:8b:
        63:5f:db:87:e0:7f:a5:25:91:db:f0:48:b5:d7:63:27:16:33:
        1f:1c:67:c4:c1:0d:1a:eb:e3:45:1c:3f:42:bf:1e:aa:91:a3:
        c4:28:3a:cf:50:70:d7:c0:99:23:a6:77:71:a6:14:a8:b5:02:
        c3:f8:fd:85:07:a5:aa:8d:f2:03:44:07:3b:56:6b:30:5b:94:
        88:ce:1a:81:bf:c5:9d:c1:e1:30:6a:4d:2f:47:30:40:72:ee:
        0d:4b:d5:fa:a4:00:3e:54:9e:1e:f2:6b:dc:d0:cd:8c:f0:ef:
        f7:ab:bc:97:e8:fb:7f:29:b7:ee:0f:40:b4:bc:5c:af:51:00:
        34:65:39:67:58:d6:fe:fc:a5:16:27:42:1b:e9:15:14:c2:d8:
        1e:81:11:1f:07:8b:7f:39:a4:ed:0d:8a:73:95:88:64:bf:09:
        f8:4d:0c:85:05:b0:2d:e6:9e:e1:48:bc:a9:2e:18:3e:0f:27:
        47:89:5f:77:14:2e:2a:cd:88:f6:ed:ff:02:1c:10:d2:1d:11:
        59:f0:8c:2d:57:cd:20:c2:81:2b:f7:56:76:91:cb:fa:ab:ff:
        bc:c5:97:2f:e5:1e:fe:ee:24:31:d4:56:a2:5d:e5:af:e6:d1:
        2a:96:46:d3:3d:01:c2:b1:93:9c:d0:94:cc:66:3f:cc:0f:51:
        87:ca:09:4b:02:80:9f:95:e9:d4:b5:07:19:0f:be:45:ed:2f:
        b0:97:fa:13:29:24:1d:3b:51:ad:34:0d:17:80:bf:59:b7:c5:
        41:72:39:22:4b:a9:c7:ce:7a:a5:5f:e2:0c:1c:05:55:3e:2f:
        89:10:1b:8c:95:bd:4a:c5:06:79:0b:85:dc:bd:7b:dd:ec:3b:
        16:4f:ed:17:8b:09:79:91:e2:93:3d:ea:b0:40:48:96:b5:24:
        fb:22:76:55:4e:15:48:5c
-----BEGIN CERTIFICATE-----
MIIEtzCCAp+gAwIBAgIBATANBgkqhkiG9w0BAQsFADCBlDELMAkGA1UEBhMCRVMx
EjAQBgNVBAgMCUJhcmNlbG9uYTESMBAGA1UEBwwJQmFyY2Vsb25hMQ0wCwYDVQQK
DAROU0FBMSAwHgYJKoZIhvcNAQkBFhFhZG1pbkBleGFtcGxlLm9yZzEsMCoGA1UE
AwwjUmFkaXVzIFNlcnZlciBDZXJ0aWZpY2F0ZSBBdXRob3JpdHkwHhcNMjQwNTE4
MTYxNDAxWhcNMjQwNzE3MTYxNDAxWjBQMQswCQYDVQQGEwJFUzESMBAGA1UECAwJ
QmFyY2Vsb25hMQ0wCwYDVQQKDAROU0FBMQ0wCwYDVQQLDAROU0FBMQ8wDQYDVQQD
DAZqYXptaW4wggEiMA0GCSqGSIb3DQEBAQUAA4IBDwAwggEKAoIBAQCiDlo6y6us
5jLgGuYBwxNgdmHG+ZL5fxUPzMkE2So3/sn1BzDOWm3ztlOy0EIZPEjEYx6ueeC7
WbJjo3jwtd2VBH0J6j38Tq+L3KlRpBgWcEbmhkrCYKhqD35RjH/gEzr2ywbAo4ND
HrOP7RB26aksJaB3SoTIYyXJgrMWNEA1u4Pft5JEAVoA0nCQF/f1BzXWc6i8aNUk
Ae/wHSKMxLm23sE77Pwm9d9taedOCsxLXXO0njCK5hjiQNXRTfGrkBxR0WPHb2+H
q4k0fpclDmMYBhixmy7spDP0lLwL+8vU+a2yFW8RI1rz7vCP+z/ijooMiqevzXM2
+1bsyirrlh5ZAgMBAAGjVzBVMBMGA1UdJQQMMAoGCCsGAQUFBwMBMB0GA1UdDgQW
BBRuBBYM//tuNBN5utwupoxERpCrAzAfBgNVHSMEGDAWgBQuBKReTwehN/mqmWdi
Q90SCV79tjANBgkqhkiG9w0BAQsFAAOCAgEAbH4nU37PTzcgavoLrYR6q/vx8h67
GYvHoGEJ+j+6feA1rnLOz+8+6jANBFf0NcbRQ51ugBNpwLqg12sRQyBqN+WeEt0v
3QunFqIqKKPpZvc3qc3sn8oKonjlZ6R6Sy+s8M7r1GYSOLBU/E6dNqhBKyrw8Za4
lXQ648hmSzGV0JTB0sZLi/b1CgEiPuDzrBjVCc/AyrzgYHLrS13W66evyb2LY1/b
h+B/pSWR2/BItddjJxYzHxxnxMENGuvjRRw/Qr8eqpGjxCg6z1Bw18CZI6Z3caYU
qLUCw/j9hQelqo3yA0QHO1ZrMFuUiM4agb/FncHhMGpNL0cwQHLuDUvV+qQAPlSe
HvJr3NDNjPDv96u8l+j7fym37g9AtLxcr1EANGU5Z1jW/vylFidCG+kVFMLYHoER
HweLfzmk7Q2Kc5WIZL8J+E0MhQWwLeae4Ui8qS4YPg8nR4lfdxQuKs2I9u3/AhwQ
0h0RWfCMLVfNIMKBK/dWdpHL+qv/vMWXL+Ue/u4kMdRWol3lr+bRKpZG0z0BwrGT
nNCUzGY/zA9Rh8oJSwKAn5Xp1LUHGQ++Re0vsJf6EykkHTtRrTQNF4C/WbfFQXI5
Ikupx856pV/iDBwFVT4viRAbjJW9SsUGeQuF3L173ew7Fk/tF4sJeZHikz3qsEBI
lrUk+yJ2VU4VSFw=
-----END CERTIFICATE-----
